; Function Attrs: null_pointer_is_valid sspstrong uwtable
define internal i32 @dissect_rpc(ptr noundef %0, ptr noundef %1, ptr noundef %2, ptr readnone captures(none) %3) #0 {
  %5 = tail call fastcc zeroext i1 @dissect_rpc_message(ptr noundef %0, ptr noundef %1, ptr noundef %2, ptr noundef null, ptr noundef null, i32 noundef 0, i32 noundef 0, i1 noundef zeroext true, i1 noundef zeroext false)
  br i1 %5, label %18, label %6

6:                                                ; preds = %4
  %7 = tail call i32 @tvb_reported_length(ptr noundef %0)
  %.not = icmp eq i32 %7, 0
  br i1 %.not, label %18, label %8

8:                                                ; preds = %6
  %9 = getelementptr inbounds nuw i8, ptr %1, i64 8
  %10 = load ptr, ptr %9, align 8
  tail call void @col_set_str(ptr noundef %10, i32 noundef 35, ptr noundef nonnull @.str.223)
  %11 = load ptr, ptr %9, align 8
  tail call void @col_set_str(ptr noundef %11, i32 noundef 25, ptr noundef nonnull @.str.344)
  %12 = load i32, ptr @proto_rpc, align 4
  %13 = tail call ptr @proto_tree_add_item(ptr noundef %2, i32 noundef %12, ptr noundef %0, i32 noundef 0, i32 noundef -1, i32 noundef 0)
  %14 = load i32, ptr @ett_rpc, align 4
  %15 = tail call ptr @proto_item_add_subtree(ptr noundef %13, i32 noundef %14)
  %16 = load i32, ptr @hf_rpc_continuation_data, align 4
  %17 = tail call ptr @proto_tree_add_item(ptr noundef %15, i32 noundef %16, ptr noundef %0, i32 noundef 0, i32 noundef -1, i32 noundef 0)
  br label %18

18:                                               ; preds = %6, %8, %4
  %19 = tail call i32 @tvb_captured_length(ptr noundef %0)
  ret i32 %19
}